ccopy_reg
_reconstructor
p1
(ctensorflow.contrib.learn.python.learn.preprocessing.text
VocabularyProcessor
p2
c__builtin__
object
p3
NtRp4
(dp5
S'vocabulary_'
p6
g1
(ctensorflow.contrib.learn.python.learn.preprocessing.categorical_vocabulary
CategoricalVocabulary
p7
g3
NtRp8
(dp9
S'_freeze'
p10
I01
sS'_unknown_token'
p11
S'<UNK>'
p12
sS'_support_reverse'
p13
I01
sS'_freq'
p14
ccollections
defaultdict
p15
(c__builtin__
int
p16
tRp17
S'raining'
p18
I2
sS'all'
p19
I8
sS'0'
I1
sS'chain'
p20
I1
sS'lack'
p21
I2
sS'month'
p22
I1
sS'four'
p23
I1
sS'softer'
p24
I1
sS'sleep'
p25
I1
sS'per'
p26
I1
sS'smoking'
p27
I2
sS'dish'
p28
I2
sS'golf'
p29
I1
sS'children'
p30
I1
sS'issues'
p31
I1
sS'copernicus'
p32
I1
sS'apartment'
p33
I2
sS'grape'
p34
I1
sS'lyrics'
p35
I2
sS'million'
p36
I2
sS'tv'
p37
I3
sS'wyoming'
p38
I1
sS'disgusting'
p39
I1
sS'thursday'
p40
I1
sS'to'
p41
I37
sS'spanish'
p42
I1
sS'dairy'
p43
I1
sS'under'
p44
I2
sS'cooler'
p45
I1
sS'worth'
p46
I1
sS'ingredient'
p47
I1
sS'brown'
p48
I3
sS'worse'
p49
I1
sS'jerk'
p50
I1
sS'sitting'
p51
I1
sS'very'
p52
I8
sS'retton'
p53
I1
sS'mph'
p54
I1
sS'simpsons'
p55
I1
sS'every'
p56
I1
sS'awful'
p57
I3
sS'sony'
p58
I1
sS'drinking'
p59
I1
sS'ramen'
p60
I1
sS'enjoyable'
p61
I1
sS'school'
p62
I6
sS'judaism'
p63
I1
sS'scholar'
p64
I1
sS'cable'
p65
I1
sS'did'
p66
I7
sS'die'
p67
I2
sS'button'
p68
I1
sS'khomeini'
p69
I1
sS'large'
p70
I1
sS'sang'
p71
I1
sS'woods'
p72
I2
sS'team'
p73
I1
sS'drop'
p74
I1
sS'round'
p75
I1
sS'clothes'
p76
I1
sS'upper'
p77
I1
sS'phones'
p78
I3
sS'japanese'
p79
I2
sS'past'
p80
I1
sS'fold'
p81
I1
sS'titles'
p82
I1
sS'video'
p83
I3
sS'eating'
p84
I1
sS'nba'
p85
I1
sS'aggressive'
p86
I1
sS'blue'
p87
I6
sS"n't"
p88
I2
sS'constitution'
p89
I1
sS'ugly'
p90
I1
sS'sun'
p91
I2
sS'cooking'
p92
I3
sS'while'
p93
I1
sS'uniform'
p94
I1
sS'cell'
p95
I3
sS'capital'
p96
I1
sS'new'
p97
I3
sS'learned'
p98
I1
sS'ever'
p99
I2
sS'bird'
p100
I1
sS'exercise'
p101
I2
sS'temperatures'
p102
I1
sS'body'
p103
I2
sS'kicked'
p104
I1
sS'explosion'
p105
I1
sS'cozy'
p106
I1
sS'men'
p107
I2
sS'hours'
p108
I2
sS'baseball'
p109
I3
sS'others'
p110
I1
sS'strong'
p111
I1
sS'because'
p112
I3
sS'tragedy'
p113
I3
sS'105'
p114
I1
sS'boy'
p115
I1
sS'great'
p116
I3
sS'substance'
p117
I2
sS'tortoise'
p118
I1
sS'smarter'
p119
I2
sS'healthy'
p120
I2
sS'leaves'
p121
I1
sS'30'
p122
I2
sS'1942'
p123
I1
sS'healthier'
p124
I1
sS'smoke'
p125
I2
sS'pick'
p126
I1
sS'military'
p127
I1
sS'makes'
p128
I1
sS'york'
p129
I3
sS'beautiful'
p130
I3
sS'fantastic'
p131
I1
sS'love'
p132
I4
sS'apple'
p133
I1
sS'family'
p134
I2
sS'slices'
p135
I1
sS'win'
p136
I2
sS'africa'
p137
I1
sS'brought'
p138
I1
sS'1905'
p139
I1
sS'armed'
p140
I1
sS'use'
p141
I2
sS'cheating'
p142
I1
sS'from'
p143
I10
sS'rugby'
p144
I1
sS'usa'
p145
I1
sS'oclock'
p146
I1
sS'illegal'
p147
I1
sS'hospital'
p148
I1
sS'contains'
p149
I1
sS'two'
p150
I1
sS'ayatollah'
p151
I1
sS'next'
p152
I2
sS'live'
p153
I3
sS'music'
p154
I4
sS'6'
I1
sS'taken'
p155
I2
sS'themselves'
p156
I1
sS'today'
p157
I2
sS'more'
p158
I22
sS'dallas'
p159
I1
sS'pencil'
p160
I2
sS'parliament'
p161
I2
sS'pretty'
p162
I3
sS'successful'
p163
I1
sS'steak'
p164
I1
sS'phone'
p165
I2
sS'flag'
p166
I1
sS'warm'
p167
I1
sS'women'
p168
I2
sS'me'
p169
I2
sS'states'
p170
I2
sS'intake'
p171
I1
sS'animals'
p172
I1
sS'wore'
p173
I3
sS'tokyo'
p174
I1
sS'this'
p175
I13
sS'car'
p176
I7
sS'athlete'
p177
I1
sS'flu'
p178
I1
sS'cat'
p179
I6
sS'wallet'
p180
I1
sS'hardest'
p181
I1
sS'nine'
p182
I1
sS'can'
p183
I7
sS'jokowi'
p184
I2
sS'entertainer'
p185
I1
sS'male'
p186
I1
sS'my'
p187
I12
sS'dollars'
p188
I2
sS'history'
p189
I1
sS'control'
p190
I2
sS'heart'
p191
I1
sS'boyfriend'
p192
I1
sS'give'
p193
I1
sS'awesome'
p194
I1
sS'nascar'
p195
I1
sS'involve'
p196
I1
sS'his'
p197
I3
sS'something'
p198
I2
sS'allowed'
p199
I1
sS'wonderful'
p200
I1
sS'skirt'
p201
I1
sS'hamburgers'
p202
I1
sS'axis'
p203
I1
sS'pink'
p204
I1
sS'united'
p205
I2
sS'winter'
p206
I1
sS'flight'
p207
I1
sS'conduct'
p208
I1
sS'holds'
p209
I1
sS'stayed'
p210
I2
sS'1'
I1
sS'amazing'
p211
I2
sS'models'
p212
I1
sS'animal'
p213
I3
sS'elephant'
p214
I2
sS'cheetah'
p215
I1
sS'nara'
p216
I1
sS'creature'
p217
I2
sS'product'
p218
I1
sS'beauty'
p219
I1
sS'funny'
p220
I2
sS'may'
p221
I4
sS'them'
p222
I1
sS'latte'
p223
I1
sS'wrong'
p224
I3
sS'birthday'
p225
I1
sS'president'
p226
I5
sS'law'
p227
I1
sS'get'
p228
I3
sS'man'
p229
I1
sS'a'
I84
sS'surfing'
p230
I1
sS'natural'
p231
I1
sS'22nd'
p232
I2
sS'crowded'
p233
I1
sS'lines'
p234
I1
sS'chapman'
p235
I1
sS'think'
p236
I5
sS'rather'
p237
I1
sS'green'
p238
I1
sS'talc'
p239
I1
sS'worst'
p240
I3
sS'athletes'
p241
I4
sS'playing'
p242
I3
sS'talk'
p243
I1
sS'refund'
p244
I1
sS'cute'
p245
I3
sS'six'
p246
I1
sS'help'
p247
I1
sS'copying'
p248
I1
sS'over'
p249
I1
sS'years'
p250
I6
sS'brain'
p251
I1
sS'through'
p252
I1
sS'pitch'
p253
I1
sS'argued'
p254
I1
sS'japan'
p255
I6
sS'mcdonalds'
p256
I1
sS'still'
p257
I2
sS'blooded'
p258
I1
sS'its'
p259
I2
sS'before'
p260
I3
sS'24'
p261
I2
sS'style'
p262
I2
sS'police'
p263
I2
sS'21'
p264
I2
sS'curly'
p265
I1
sS'personal'
p266
I1
sS'better'
p267
I8
sS'spoiling'
p268
I1
sS'irans'
p269
I1
sS'400'
p270
I1
sS'orange'
p271
I2
sS'mail'
p272
I2
sS'2017'
p273
I1
sS'main'
p274
I1
sS'2010'
p275
I1
sS'happened'
p276
I3
sS'coffee'
p277
I1
sS'good'
p278
I14
sS'diseases'
p279
I1
sS'gray'
p280
I1
sS'food'
p281
I6
sS'flour'
p282
I1
sS'bat'
p283
I1
sS'sooner'
p284
I1
sS'underneath'
p285
I1
sS'band'
p286
I1
sS'starbucks'
p287
I1
sS'they'
p288
I8
sS'half'
p289
I1
sS'not'
p290
I18
sS'now'
p291
I3
sS'day'
p292
I6
sS'impressive'
p293
I1
sS'masters'
p294
I1
sS'meat'
p295
I1
sS'university'
p296
I1
sS'nfl'
p297
I4
sS'stopped'
p298
I1
sS'each'
p299
I3
sS'went'
p300
I5
sS'pizza'
p301
I16
sS'glasses'
p302
I5
sS'harm'
p303
I1
sS'doing'
p304
I1
sS'house'
p305
I4
sS'hard'
p306
I1
sS'costed'
p307
I2
sS'used'
p308
I1
sS'year'
p309
I10
sS'our'
p310
I3
sS'homeruns'
p311
I1
sS'event'
p312
I2
sS'out'
p313
I4
sS'flower'
p314
I5
sS'alcohol'
p315
I2
sS'since'
p316
I2
sS'health'
p317
I1
sS'rap'
p318
I1
sS'assignment'
p319
I1
sS'pizzeria'
p320
I2
sS'cause'
p321
I2
sS'red'
p322
I4
sS'shows'
p323
I1
sS'written'
p324
I1
sS'cars'
p325
I2
sS'friday'
p326
I1
sS'horse'
p327
I1
sS'disneyland'
p328
I1
sS'vegetarians'
p329
I1
sS'card'
p330
I1
sS'definition'
p331
I1
sS'interaction'
p332
I1
sS'language'
p333
I1
sS'calories'
p334
I3
sS'terrible'
p335
I3
sS'thing'
p336
I1
sS'american'
p337
I2
sS'mesh'
p338
I1
sS'place'
p339
I3
sS'pepperoni'
p340
I1
sS'leading'
p341
I1
sS'top'
p342
I2
sS'south'
p343
I1
sS'first'
p344
I4
sS'blind'
p345
I1
sS'cheese'
p346
I3
sS'major'
p347
I1
sS'dwelling'
p348
I1
sS'dont'
p349
I1
sS'student'
p350
I1
sS'number'
p351
I1
sS'one'
p352
I3
sS'mignon'
p353
I1
sS'delicious'
p354
I1
sS'such'
p355
I1
sS'nutritionist'
p356
I1
sS'drove'
p357
I1
sS'george'
p358
I1
sS'city'
p359
I4
sS'little'
p360
I1
sS'basketball'
p361
I5
sS'temperature'
p362
I1
sS'paint'
p363
I1
sS'festival'
p364
I4
sS'automobile'
p365
I1
sS'caught'
p366
I1
sS'slept'
p367
I1
sS'least'
p368
I2
sS'broccoli'
p369
I1
sS'their'
p370
I2
sS'attack'
p371
I1
sS'2'
I5
sS'too'
p372
I4
sS'white'
p373
I2
sS'john'
p374
I1
sS'dogs'
p375
I3
sS'speaking'
p376
I1
sS'gives'
p377
I1
sS'selling'
p378
I1
sS'that'
p379
I14
sS'season'
p380
I1
sS'tool'
p381
I2
sS'hotel'
p382
I4
sS'took'
p383
I1
sS'cheerleading'
p384
I1
sS'stephanie'
p385
I1
sS'released'
p386
I1
sS'processed'
p387
I1
sS'jordan'
p388
I1
sS'bieber'
p389
I1
sS'doctors'
p390
I2
sS'believe'
p391
I1
sS'than'
p392
I39
sS'obama'
p393
I3
sS'10'
p394
I1
sS'kind'
p395
I1
sS'15'
p396
I1
sS'14'
p397
I1
sS'iranian'
p398
I1
sS'18'
p399
I1
sS'tree'
p400
I2
sS'infectious'
p401
I1
sS'bed'
p402
I1
sS'marriage'
p403
I1
sS'were'
p404
I3
sS'f12'
p405
I1
sS'college'
p406
I4
sS'powers'
p407
I1
sS'russia'
p408
I1
sS'and'
p409
I19
sS'nicer'
p410
I1
sS'carrots'
p411
I1
sS'italy'
p412
I2
sS'tastes'
p413
I4
sS'aroldis'
p414
I1
sS'have'
p415
I17
sS'need'
p416
I1
sS'sells'
p417
I3
sS'any'
p418
I3
sS'sport'
p419
I2
sS'once'
p420
I1
sS'general'
p421
I1
sS'responsible'
p422
I1
sS'high'
p423
I5
sS'without'
p424
I1
sS'sandwiches'
p425
I1
sS'which'
p426
I2
sS'funniest'
p427
I1
sS'moscow'
p428
I1
sS'quarterback'
p429
I2
sS'play'
p430
I1
sS'salaries'
p431
I1
sS'cheeses'
p432
I1
sS'bruce'
p433
I1
sS'price'
p434
I1
sS'who'
p435
I8
sS'effective'
p436
I2
sS'most'
p437
I9
sS'germany'
p438
I1
sS'tall'
p439
I1
sS'america'
p440
I3
sS'medal'
p441
I1
sS'the'
p442
I142
sS'salary'
p443
I2
sS'michelle'
p444
I2
sS'dealers'
p445
I1
sS'jakarta'
p446
I2
sS'average'
p447
I7
sS'sometimes'
p448
I1
sS'detectors'
p449
I1
sS'disease'
p450
I2
sS'face'
p451
I1
sS'astonishing'
p452
I1
sS'ferrari'
p453
I1
sS'clean'
p454
I1
sS'movie'
p455
I1
sS'professional'
p456
I1
sS'yankees'
p457
I2
sS'outlive'
p458
I1
sS'fact'
p459
I2
sS'shot'
p460
I1
sS'gold'
p461
I1
sS'cdc'
p462
I1
sS'text'
p463
I1
sS'league'
p464
I1
sS'bright'
p465
I1
sS'earth'
p466
I5
sS'chicken'
p467
I2
sS'd5'
p468
I1
sS'cheeseburgers'
p469
I1
sS'giant'
p470
I1
sS'clicked'
p471
I1
sS'series'
p472
I1
sS'3'
I3
sS'should'
p473
I8
sS'only'
p474
I2
sS'planted'
p475
I1
sS'black'
p476
I6
sS'snickers'
p477
I1
sS'money'
p478
I7
sS'8'
I1
sS'adequate'
p479
I1
sS'rice'
p480
I1
sS'thousands'
p481
I1
sS'sporting'
p482
I1
sS'wearing'
p483
I1
sS'do'
p484
I5
sS'beatles'
p485
I2
sS'bonds'
p486
I1
sS'hostage'
p487
I1
sS'banned'
p488
I1
sS'diamonds'
p489
I1
sS'watch'
p490
I1
sS'television'
p491
I2
sS'truly'
p492
I1
sS'cursing'
p493
I1
sS'bean'
p494
I1
sS'cannot'
p495
I1
sS'fastest'
p496
I2
sS'despite'
p497
I1
sS'happiest'
p498
I1
sS'2009'
p499
I1
sS'earn'
p500
I1
sS'bar'
p501
I1
sS'racing'
p502
I1
sS'16'
p503
I1
sS'public'
p504
I4
sS'berlinetta'
p505
I1
sS'twice'
p506
I2
sS'bad'
p507
I3
sS'stupid'
p508
I1
sS'she'
p509
I13
sS'bombs'
p510
I1
sS'double'
p511
I1
sS'london'
p512
I2
sS'river'
p513
I1
sS'16th'
p514
I1
sS'husband'
p515
I1
sS'playstation'
p516
I1
sS'learn'
p517
I1
sS'lifetimes'
p518
I1
sS'testing'
p519
I1
sS'humans'
p520
I1
sS'bears'
p521
I1
sS'elected'
p522
I1
sS'lion'
p523
I2
sS'asleep'
p524
I1
sS'are'
p525
I28
sS'sea'
p526
I1
sS'skateboarding'
p527
I1
sS'noodles'
p528
I1
sS'hammer'
p529
I2
sS'best'
p530
I8
sS'statistically'
p531
I1
sS'outbreak'
p532
I1
sS'inappropriate'
p533
I1
sS'nuclear'
p534
I1
sS'away'
p535
I2
sS'artificial'
p536
I1
sS'opened'
p537
I1
sS'hashanah'
p538
I1
sS'won'
p539
I1
sS'between'
p540
I2
sS'yogurt'
p541
I1
sS'bought'
p542
I3
sS'intramural'
p543
I1
sS'we'
p544
I14
sS'wears'
p545
I2
sS'purity'
p546
I1
sS'screen'
p547
I1
sS'spoiled'
p548
I1
sS'vitamin'
p549
I1
sS'killing'
p550
I1
sS'wear'
p551
I2
sS'console'
p552
I1
sS'debt'
p553
I1
sS'monitor'
p554
I1
sS'water'
p555
I2
sS'c'
I1
sS'accident'
p556
I1
sS'last'
p557
I13
sS'talented'
p558
I1
sS'restaurant'
p559
I1
sS'career'
p560
I1
sS'many'
p561
I2
sS'according'
p562
I1
sS'against'
p563
I1
sS'emit'
p564
I1
sS'participating'
p565
I1
sS'players'
p566
I1
sS'games'
p567
I3
sS'obamas'
p568
I1
sS'asked'
p569
I1
sS'mausoleum'
p570
I1
sS'teather'
p571
I1
sS'cancer'
p572
I1
sS'color'
p573
I1
sS'seems'
p574
I2
sS'exciting'
p575
I2
sS'crispy'
p576
I1
sS'earning'
p577
I1
sS'expensive'
p578
I3
sS'speak'
p579
I1
sS'caring'
p580
I1
sS'raise'
p581
I1
sS'crime'
p582
I1
sS'union'
p583
I1
sS'west'
p584
I1
sS'been'
p585
I2
sS'teacher'
p586
I2
sS'much'
p587
I5
sS'combined'
p588
I1
sS'eraser'
p589
I2
sS'mary'
p590
I1
sS'500'
p591
I1
sS'threw'
p592
I1
sS'tournament'
p593
I1
sS'shopping'
p594
I1
sS'both'
p595
I1
sS'drugs'
p596
I1
sS'muscles'
p597
I1
sS'worker'
p598
I1
sS'protect'
p599
I1
sS'tiger'
p600
I4
sS'lives'
p601
I3
sS'child'
p602
I1
sS'justin'
p603
I1
sS'prescription'
p604
I1
sS'evidence'
p605
I1
sS'sacrificing'
p606
I1
sS'mlb'
p607
I1
sS'manure'
p608
I1
sS'myself'
p609
I1
sS'save'
p610
I1
sS'fur'
p611
I2
sS'look'
p612
I1
sS'frozen'
p613
I1
sS'socialist'
p614
I1
sS'harder'
p615
I2
sS'easier'
p616
I2
sS'will'
p617
I3
sS'calcium'
p618
I1
sS'near'
p619
I1
sS'rained'
p620
I1
sS'ugliest'
p621
I2
sS'homework'
p622
I2
sS'behavior'
p623
I1
sS'country'
p624
I2
sS'fun'
p625
I4
sS'property'
p626
I1
sS'launched'
p627
I2
sS'seven'
p628
I1
sS'ringing'
p629
I1
sS'century'
p630
I1
sS'is'
p631
I134
sS'sushi'
p632
I2
sS'it'
p633
I30
sS'sleeping'
p634
I1
sS'ii'
p635
I1
sS'player'
p636
I2
sS'cant'
p637
I1
sS'someone'
p638
I3
sS'im'
p639
I1
sS'drug'
p640
I1
sS'in'
p641
I52
sS'cook'
p642
I2
sS'protein'
p643
I2
sS'mouse'
p644
I1
sS'everyday'
p645
I1
sS'if'
p646
I1
sS'grown'
p647
I1
sS'35f'
p648
I1
sS'handsome'
p649
I1
sS'verified'
p650
I1
sS'shirt'
p651
I5
sS'horrible'
p652
I1
sS'credit'
p653
I1
sS'things'
p654
I1
sS'make'
p655
I2
sS'belong'
p656
I1
sS'radiation'
p657
I1
sS'poetic'
p658
I1
sS'babies'
p659
I1
sS'largest'
p660
I1
sS'party'
p661
I2
sS'terrorism'
p662
I1
sS'physical'
p663
I1
sS'difficult'
p664
I1
sS'week'
p665
I5
sS'putin'
p666
I1
sS'theodore'
p667
I1
sS'buccaneers'
p668
I1
sS'drink'
p669
I2
sS'yesterday'
p670
I4
sS'flows'
p671
I1
sS'hand'
p672
I1
sS'liberties'
p673
I1
sS'studens'
p674
I1
sS'fruit'
p675
I2
sS'manatee'
p676
I1
sS'spitting'
p677
I1
sS'strength'
p678
I1
sS'cartoon'
p679
I1
sS'so'
p680
I2
sS'center'
p681
I1
sS'older'
p682
I1
sS'i'
I44
sS'1976'
p683
I1
sS'indonesia'
p684
I3
sS'dreiser'
p685
I1
sS'person'
p686
I2
sS'costs'
p687
I1
sS'greatest'
p688
I2
sS'mother'
p689
I2
sS'jean'
p690
I1
sS'soviet'
p691
I1
sS'consisted'
p692
I1
sS'summer'
p693
I3
sS'watching'
p694
I1
sS'agency'
p695
I1
sS'carrie'
p696
I1
sS'just'
p697
I2
sS'heavily'
p698
I2
sS'being'
p699
I2
sS'when'
p700
I4
sS'laptop'
p701
I1
sS'hands'
p702
I1
sS'emelie'
p703
I1
sS'violent'
p704
I1
sS'kill'
p705
I1
sS'human'
p706
I3
sS'polish'
p707
I1
sS'injuries'
p708
I2
sS'web'
p709
I1
sS'death'
p710
I2
sS'rosh'
p711
I1
sS'cup'
p712
I1
sS'had'
p713
I6
sS'killed'
p714
I1
sS'barack'
p715
I3
sS'other'
p716
I4
sS'4'
I1
sS'easy'
p717
I1
sS'prison'
p718
I2
sS'role'
p719
I1
sS'has'
p720
I10
sS'smart'
p721
I5
sS'gave'
p722
I2
sS'real'
p723
I1
sS'around'
p724
I2
sS'government'
p725
I1
sS'big'
p726
I2
sS'pants'
p727
I1
sS'republics'
p728
I1
sS'dark'
p729
I1
sS'game'
p730
I5
sS'five'
p731
I1
sS'world'
p732
I8
sS'lady'
p733
I1
sS'lost'
p734
I1
sS'schools'
p735
I2
sS'follows'
p736
I1
sS'hunt'
p737
I1
sS'souvenirs'
p738
I1
sS'michael'
p739
I1
sS'benefit'
p740
I1
sS'night'
p741
I2
sS'popular'
p742
I1
sS'become'
p743
I1
sS'italian'
p744
I1
sS'soccer'
p745
I3
sS'right'
p746
I2
sS'old'
p747
I4
sS'people'
p748
I11
sS'spring'
p749
I1
sS'scared'
p750
I1
sS'some'
p751
I2
sS'topping'
p752
I1
sS'hair'
p753
I5
sS'dough'
p754
I1
sS'cowboys'
p755
I1
sS"'s"
p756
I5
sS'slice'
p757
I2
sS'for'
p758
I12
sS'purple'
p759
I1
sS'recorded'
p760
I1
sS'legal'
p761
I1
sS'polluted'
p762
I1
sS'competitions'
p763
I1
sS'religion'
p764
I1
sS'anchovies'
p765
I1
sS'be'
p766
I12
sS'sixteen'
p767
I1
sS'run'
p768
I1
sS'300'
p769
I1
sS'equivalent'
p770
I1
sS'rock'
p771
I2
sS'graduates'
p772
I2
sS'murdered'
p773
I1
sS'prohibited'
p774
I1
sS'taurus'
p775
I1
sS'defensive'
p776
I1
sS'eye'
p777
I1
sS'stay'
p778
I1
sS'by'
p779
I2
sS'on'
p780
I8
sS'sister'
p781
I1
sS'would'
p782
I2
sS'attacks'
p783
I1
sS'of'
p784
I43
sS'industry'
p785
I2
sS'months'
p786
I1
sS'important'
p787
I2
sS'greatly'
p788
I1
sS'barry'
p789
I1
sS'luck'
p790
I1
sS'or'
p791
I5
sS'own'
p792
I1
sS'burning'
p793
I1
sS'washington'
p794
I1
sS'chicago'
p795
I2
sS'spinal'
p796
I1
sS'ussr'
p797
I1
sS'promise'
p798
I1
sS'female'
p799
I1
sS'sports'
p800
I4
sS'your'
p801
I5
sS'placed'
p802
I1
sS'her'
p803
I7
sS'spam'
p804
I1
sS'vegetables'
p805
I1
sS'there'
p806
I7
sS'fast'
p807
I2
sS'christianity'
p808
I1
sS'start'
p809
I1
sS'accordingly'
p810
I1
sS'cats'
p811
I2
sS'low'
p812
I2
sS'lot'
p813
I4
sS'lou'
p814
I1
sS'was'
p815
I30
sS'war'
p816
I3
sS'overpaid'
p817
I2
sS'starve'
p818
I1
sS'head'
p819
I1
sS'buy'
p820
I1
sS'form'
p821
I1
sS'filet'
p822
I1
sS'mammals'
p823
I1
sS'ford'
p824
I1
sS'delivery'
p825
I1
sS'lowered'
p826
I1
sS'survived'
p827
I1
sS'straight'
p828
I1
sS'with'
p829
I4
sS'eat'
p830
I5
sS'buying'
p831
I2
sS'he'
p832
I10
sS'made'
p833
I2
sS'places'
p834
I1
sS'dangerous'
p835
I1
sS'up'
p836
I2
sS'us'
p837
I2
sS'planet'
p838
I1
sS'record'
p839
I2
sS'dirty'
p840
I2
sS'cake'
p841
I1
sS'character'
p842
I1
sS'called'
p843
I3
sS'gone'
p844
I1
sS'hotter'
p845
I1
sS'adults'
p846
I1
sS'flat'
p847
I1
sS'stealing'
p848
I1
sS'am'
p849
I4
sS'deep'
p850
I2
sS'an'
p851
I8
sS'carbohydrate'
p852
I1
sS'as'
p853
I7
sS'clever'
p854
I2
sS'at'
p855
I13
sS'home'
p856
I1
sS'watched'
p857
I1
sS'moves'
p858
I1
sS'film'
p859
I3
sS'standardized'
p860
I1
sS'innings'
p861
I1
sS'bicycling'
p862
I1
sS'drivers'
p863
I1
sS'generally'
p864
I1
sS'elway'
p865
I1
sS'graduate'
p866
I1
sS'fire'
p867
I1
sS'book'
p868
I2
sS'5'
I1
sS'sick'
p869
I3
sS'evenings'
p870
I2
sS'compete'
p871
I1
sS'you'
p872
I13
sS'really'
p873
I3
sS'nice'
p874
I4
sS'junk'
p875
I1
sS'quartz'
p876
I1
sS'star'
p877
I1
sS'students'
p878
I2
sS'gas'
p879
I1
sS'football'
p880
I3
sS'diet'
p881
I2
sS'healthiest'
p882
I1
sS'generated'
p883
I1
sS'journey'
p884
I1
sS'suppression'
p885
I1
sS'song'
p886
I1
sS'pizzas'
p887
I1
sS'friends'
p888
I1
sS'died'
p889
I1
sS'missed'
p890
I1
sS'ago'
p891
I2
sS'land'
p892
I2
sS'e'
I1
sS'wife'
p893
I1
sS'age'
p894
I2
sS'dog'
p895
I5
sS'rule'
p896
I1
sS'bandung'
p897
I3
sS'cooked'
p898
I1
sS'vietnam'
p899
I1
sS'thames'
p900
I1
sS'time'
p901
I4
sS'yell'
p902
I1
sS'accidents'
p903
I1
sS'requires'
p904
I1
sS'having'
p905
I1
sS'songs'
p906
I1
ssS'_mapping'
p907
(dp908
g18
I14
sg19
I338
sS'0'
I508
sg20
I401
sg21
I463
sg22
I173
sg23
I237
sg24
I456
sg25
I464
sg26
I703
sg27
I152
sg28
I551
sg29
I806
sg30
I698
sg31
I484
sg32
I362
sg33
I202
sg34
I217
sg35
I784
sg36
I544
sg37
I35
sg38
I290
sg39
I879
sg40
I122
sg41
I19
sg42
I695
sg43
I269
sg44
I378
sg45
I899
sg46
I778
sg47
I560
sg48
I29
sg49
I580
sg50
I686
sg51
I162
sg52
I573
sg53
I521
sg54
I518
sg55
I741
sg56
I23
sg57
I584
sg58
I442
sg59
I599
sg60
I802
sg61
I722
sg62
I263
sg63
I305
sg64
I366
sg65
I682
sg66
I189
sg67
I320
sg68
I112
sg69
I231
sg70
I858
sg71
I680
sg72
I478
sg73
I534
sg74
I798
sg75
I89
sg76
I69
sg77
I846
sg78
I405
sg79
I158
sg80
I758
sg81
I876
sg82
I533
sg83
I446
sg84
I762
sg85
I865
sg86
I842
sg87
I5
sg88
I838
sg89
I379
sg90
I566
sg91
I266
sg92
I143
sg93
I438
sg94
I827
sg95
I404
sg96
I292
sg97
I528
sg98
I160
sg99
I606
sg100
I45
sg101
I638
sg102
I873
sg103
I615
sg104
I432
sg105
I207
sg106
I648
sg107
I224
sg108
I40
sg109
I498
sg110
I238
sg111
I614
sg112
I844
sg113
I46
sg114
I517
sg115
I661
sg116
I634
sg117
I393
sg118
I451
sg119
I797
sg120
I656
sg121
I27
sg122
I48
sg123
I255
sg124
I753
sg125
I315
sg126
I830
sg127
I275
sg128
I556
sg129
I529
sg130
I575
sg131
I624
sg132
I568
sg133
I6
sg134
I132
sg135
I877
sg136
I523
sg137
I100
sg138
I198
sg139
I565
sg140
I223
sg141
I839
sg142
I430
sg143
I322
sg144
I705
sg145
I271
sg146
I181
sg147
I412
sg148
I436
sg149
I386
sg150
I302
sg151
I230
sg152
I245
sg153
I71
sg154
I596
sS'6'
I351
sg155
I239
sg156
I814
sg157
I603
sg158
I396
sg159
I817
sg160
I149
sg161
I228
sg162
I673
sg163
I751
sg164
I801
sg165
I138
sg166
I788
sg167
I278
sg168
I526
sg169
I119
sg170
I57
sg171
I355
sg172
I652
sg173
I68
sg174
I63
sg175
I44
sg176
I10
sg177
I482
sg178
I690
sg179
I2
sg180
I30
sg181
I392
sg182
I496
sg183
I77
sg184
I52
sg185
I774
sg186
I719
sg187
I1
sg188
I545
sg189
I853
sg190
I329
sg191
I458
sg192
I196
sg193
I118
sg194
I578
sg195
I834
sg196
I341
sg197
I131
sg198
I75
sg199
I699
sg200
I620
sg201
I129
sg202
I397
sg203
I356
sg204
I128
sg205
I56
sg206
I591
sg207
I165
sg208
I813
sg209
I537
sg210
I41
sS'1'
I177
sg211
I611
sg212
I812
sg213
I214
sg214
I213
sg215
I375
sg216
I201
sg217
I374
sg218
I270
sg219
I663
sg220
I628
sg221
I264
sg222
I901
sg223
I471
sg224
I607
sg225
I192
sg226
I53
sg227
I427
sg228
I670
sg229
I60
sS'a'
I7
sg230
I707
sg231
I884
sg232
I265
sg233
I416
sg234
I820
sg235
I511
sg236
I592
sg237
I617
sg238
I26
sg239
I455
sg240
I503
sg241
I809
sg242
I439
sg243
I284
sg244
I435
sg245
I608
sg246
I548
sg247
I317
sg248
I765
sg249
I547
sg250
I33
sg251
I410
sg252
I84
sg253
I513
sg254
I368
sg255
I20
sg256
I394
sg257
I479
sg258
I279
sg259
I623
sg260
I579
sg261
I220
sg262
I875
sg263
I668
sg264
I32
sg265
I769
sg266
I780
sg267
I570
sg268
I860
sg269
I227
sg270
I555
sg271
I385
sg272
I345
sg273
I258
sg274
I559
sg275
I94
sg276
I50
sg277
I687
sg278
I593
sg279
I336
sg280
I612
sg281
I170
sg282
I558
sg283
I831
sg284
I462
sg285
I888
sg286
I261
sg287
I472
sg288
I174
sg289
I337
sg290
I184
sg291
I182
sg292
I262
sg293
I643
sg294
I714
sg295
I754
sg296
I433
sg297
I505
sg298
I300
sg299
I321
sg300
I18
sg301
I553
sg302
I186
sg303
I153
sg304
I795
sg305
I204
sg306
I665
sg307
I47
sg308
I743
sg309
I117
sg310
I650
sg311
I538
sg312
I527
sg313
I414
sg314
I113
sg890
I164
sg316
I837
sg317
I155
sg318
I786
sg319
I767
sg320
I557
sg321
I409
sg322
I11
sg323
I740
sg324
I382
sg325
I897
sg326
I124
sg327
I744
sg328
I219
sg329
I752
sg330
I726
sg331
I662
sg332
I323
sg333
I693
sg334
I470
sg335
I626
sg336
I581
sg337
I522
sg338
I822
sg339
I98
sg340
I886
sg341
I459
sg342
I480
sg343
I99
sg344
I103
sg345
I193
sg346
I552
sg347
I515
sg348
I373
sg349
I178
sg350
I850
sg351
I724
sg352
I571
sg353
I800
sg354
I677
sg355
I659
sg356
I307
sg357
I37
sg358
I376
sg12
I0
sg359
I72
sg360
I564
sg361
I441
sg362
I289
sg363
I900
sg364
I121
sg365
I339
sg366
I429
sg367
I176
sg368
I232
sg369
I868
sg370
I324
sg371
I242
sS'2'
I39
sg372
I654
sg373
I205
sg374
I851
sg375
I212
sg376
I500
sg377
I832
sg378
I445
sg379
I171
sg380
I539
sg381
I216
sg382
I43
sg383
I97
sg384
I490
sg385
I649
sg386
I257
sg387
I883
sg388
I733
sg389
I772
sg390
I717
sg391
I308
sg392
I301
sg393
I102
sg394
I211
sg395
I657
sg396
I543
sg397
I509
sg398
I241
sg399
I286
sg400
I24
sg401
I335
sg402
I179
sg403
I487
sg404
I107
sg405
I895
sg406
I431
sg407
I357
sg408
I249
sg409
I130
sg410
I590
sg411
I403
sg412
I360
sg413
I653
sg414
I510
sg415
I28
sg416
I349
sg417
I395
sg418
I398
sg419
I805
sg420
I764
sg421
I807
sg422
I333
sg423
I311
sg424
I434
sg425
I419
sg426
I76
sg427
I631
sg428
I298
sg429
I541
sg430
I855
sg431
I859
sg432
I885
sg433
I247
sg434
I746
sg435
I367
sg436
I622
sg437
I299
sg438
I359
sg439
I582
sg440
I253
sg441
I525
sg442
I9
sg443
I540
sg444
I125
sg445
I760
sg446
I73
sg447
I288
sg448
I768
sg449
I316
sg450
I328
sg451
I674
sg452
I728
sg453
I894
sg454
I583
sg455
I417
sg456
I808
sg457
I530
sg458
I453
sg459
I74
sg460
I248
sg461
I524
sg462
I330
sg463
I824
sg464
I516
sg465
I823
sg466
I88
sg467
I402
sg468
I163
sg469
I422
sg470
I450
sg471
I111
sg472
I532
sS'3'
I108
sg473
I600
sg474
I208
sg475
I115
sg476
I4
sg477
I473
sg478
I468
sS'8'
I352
sg479
I354
sg480
I210
sg481
I319
sg482
I862
sg483
I621
sg484
I183
sg485
I260
sg486
I536
sg487
I240
sg488
I696
sg489
I391
sg490
I700
sg491
I702
sg492
I721
sg493
I775
sg494
I630
sg495
I856
sg496
I371
sg497
I483
sg498
I627
sg499
I542
sg500
I476
sg501
I474
sg502
I835
sg503
I602
sg504
I424
sg505
I896
sg506
I243
sg507
I637
sg508
I641
sg509
I188
sg510
I252
sg511
I421
sg512
I85
sg513
I82
sg514
I363
sg515
I664
sg516
I443
sg517
I694
sg518
I477
sg519
I736
sg520
I276
sg521
I826
sg522
I104
sg523
I135
sg524
I134
sg525
I277
sg526
I730
sg527
I423
sg528
I803
sg529
I215
sg530
I444
sg531
I499
sg532
I689
sg533
I776
sg534
I251
sg535
I141
sg536
I882
sg537
I562
sg538
I304
sg539
I531
sg540
I285
sg541
I268
sg542
I148
sg543
I713
sg544
I36
sg545
I187
sg546
I861
sg547
I67
sg548
I867
sg549
I389
sg550
I645
sg551
I185
sg552
I448
sg553
I727
sg554
I66
sg555
I353
sS'c'
I390
sg556
I65
sg557
I21
sg558
I773
sg559
I400
sg560
I676
sg561
I306
sg562
I493
sg563
I426
sg564
I406
sg565
I712
sg566
I866
sg567
I794
sg568
I126
sg569
I669
sg570
I229
sg571
I418
sg572
I411
sg573
I203
sg574
I604
sg575
I804
sg576
I874
sg577
I481
sg578
I420
sg579
I157
sg580
I718
sg581
I791
sg582
I789
sg583
I293
sg584
I218
sg585
I235
sg586
I658
sg587
I636
sg588
I492
sg589
I151
sg590
I519
sg591
I147
sg592
I512
sg593
I715
sg594
I123
sg595
I387
sg596
I326
sg597
I840
sg598
I666
sg599
I782
sg600
I133
sg601
I49
sg602
I792
sg603
I771
sg604
I325
sg605
I81
sg606
I779
sg607
I494
sg608
I745
sg609
I619
sg610
I318
sg611
I259
sg612
I898
sg613
I870
sg614
I295
sg615
I756
sg616
I692
sg617
I452
sg618
I388
sg619
I62
sg620
I679
sg621
I729
sg622
I766
sg623
I777
sg624
I642
sg625
I672
sg626
I425
sg627
I225
sg628
I233
sg629
I139
sg630
I364
sg631
I3
sg632
I572
sg633
I12
sg634
I206
sg635
I361
sg636
I546
sg637
I156
sg638
I750
sg639
I161
sg640
I759
sg641
I15
sg642
I869
sg643
I312
sg644
I172
sg645
I120
sg646
I763
sg647
I748
sg648
I291
sg649
I660
sg650
I79
sg651
I145
sg652
I688
sg653
I725
sg654
I849
sg655
I864
sg656
I761
sg657
I407
sg658
I785
sg659
I281
sg660
I274
sg661
I639
sg662
I783
sg663
I843
sg664
I854
sg665
I22
sg666
I685
sg667
I383
sg668
I502
sg669
I350
sg670
I51
sg671
I83
sg672
I829
sg673
I781
sg674
I755
sg675
I8
sg676
I731
sg677
I828
sg678
I847
sg679
I633
sg680
I640
sg681
I327
sg682
I793
sS'i'
I17
sg683
I501
sg684
I55
sg685
I384
sg686
I629
sg687
I146
sg688
I734
sg689
I142
sg690
I246
sg691
I294
sg692
I358
sg693
I91
sg694
I709
sg695
I332
sg696
I381
sg697
I250
sg698
I585
sg699
I461
sg700
I140
sg701
I197
sg702
I857
sg703
I675
sg704
I706
sg705
I651
sg706
I454
sg707
I365
sg708
I437
sg709
I708
sg710
I460
sg711
I303
sg712
I96
sg713
I195
sg714
I236
sg715
I101
sg716
I399
sS'4'
I110
sg717
I159
sg718
I737
sg719
I811
sg720
I25
sg721
I574
sg722
I116
sg723
I836
sg724
I370
sg725
I331
sg726
I647
sg727
I70
sg728
I296
sg729
I821
sg730
I447
sg731
I701
sg732
I95
sg733
I671
sg734
I272
sg735
I697
sg736
I92
sg737
I137
sg738
I175
sg739
I732
sg740
I710
sg741
I244
sg742
I757
sg743
I749
sg744
I691
sg745
I704
sg746
I194
sg747
I34
sg748
I234
sg749
I93
sg750
I667
sg751
I169
sg752
I880
sg753
I59
sg754
I561
sg755
I818
sg756
I485
sg757
I549
sg758
I38
sg759
I114
sg760
I514
sg761
I597
sg762
I586
sg763
I863
sg764
I684
sg765
I878
sg766
I78
sg767
I790
sg768
I594
sg769
I554
sg770
I346
sg771
I595
sg772
I475
sg773
I61
sg774
I646
sg775
I893
sg776
I819
sg777
I816
sg778
I613
sg779
I80
sg780
I136
sg781
I380
sg782
I616
sg783
I226
sg784
I54
sg785
I466
sg786
I287
sg787
I655
sg788
I711
sg789
I535
sg790
I833
sg791
I408
sg792
I199
sg793
I787
sg794
I377
sg795
I825
sg796
I489
sg797
I297
sg798
I256
sg799
I716
sg800
I491
sg801
I154
sg802
I887
sg803
I58
sg804
I343
sg805
I569
sg806
I465
sg807
I610
sg808
I683
sg809
I283
sg810
I815
sg811
I635
sg812
I309
sg813
I587
sg814
I520
sg815
I13
sg816
I254
sg817
I810
sg818
I618
sg819
I488
sg820
I190
sg821
I723
sg822
I799
sg823
I280
sg824
I892
sg825
I889
sg826
I601
sg827
I64
sg828
I770
sg829
I486
sg830
I209
sg831
I891
sg832
I166
sg833
I881
sg834
I738
sg835
I848
sg836
I563
sg837
I168
sg838
I739
sg839
I504
sg840
I577
sg841
I191
sg842
I632
sg843
I86
sg844
I507
sg845
I605
sg846
I348
sg847
I90
sg848
I644
sg849
I31
sg850
I550
sg851
I150
sg852
I310
sg853
I742
sg854
I567
sg855
I42
sg856
I871
sg857
I144
sg858
I369
sg859
I469
sg860
I735
sg861
I497
sg862
I720
sg863
I890
sg864
I282
sg865
I852
sg866
I796
sg867
I415
sg868
I200
sS'5'
I180
sg869
I105
sg870
I589
sg871
I841
sg872
I106
sg873
I609
sg874
I576
sg875
I347
sg876
I457
sg877
I267
sg878
I428
sg879
I747
sg880
I440
sg881
I313
sg882
I314
sg883
I467
sg884
I625
sg885
I334
sg886
I678
sg887
I872
sg888
I588
sg889
I221
sg315
I342
sg891
I222
sg892
I372
sS'e'
I344
sg893
I127
sg894
I598
sg895
I109
sg896
I495
sg897
I16
sg898
I167
sg899
I273
sg900
I87
sg901
I449
sg902
I413
sg903
I340
sg904
I845
sg905
I506
sg906
I681
ssS'_reverse_mapping'
p909
(lp910
g12
ag187
ag179
ag631
ag476
ag87
ag133
aS'a'
ag675
ag442
ag176
ag322
ag633
ag815
ag18
ag641
ag897
aS'i'
ag300
ag41
ag255
ag557
ag665
ag56
ag400
ag720
ag238
ag121
ag415
ag48
ag180
ag849
ag264
ag250
ag747
ag37
ag544
ag357
ag758
aS'2'
ag108
ag210
ag855
ag382
ag175
ag100
ag113
ag307
ag122
ag601
ag276
ag670
ag184
ag226
ag784
ag684
ag205
ag170
ag803
ag753
ag229
ag773
ag619
ag174
ag827
ag556
ag554
ag547
ag173
ag76
ag727
ag153
ag359
ag446
ag459
ag198
ag426
ag183
ag766
ag650
ag779
ag605
ag513
ag671
ag252
ag512
ag843
ag900
ag466
ag75
ag847
ag693
ag736
ag749
ag275
ag732
ag712
ag383
ag339
ag343
ag137
ag715
ag393
ag344
ag522
ag869
ag872
ag404
aS'3'
ag895
aS'4'
ag471
ag68
ag314
ag759
ag475
ag722
ag309
ag193
ag169
ag645
ag364
ag40
ag594
ag326
ag444
ag568
ag893
ag204
ag201
ag409
ag197
ag134
ag600
ag524
ag523
ag780
ag737
ag165
ag629
ag700
ag535
ag689
ag92
ag857
ag651
ag687
ag591
ag542
ag160
ag851
ag589
ag27
ag303
ag801
ag317
ag637
ag579
ag79
ag717
ag98
ag639
ag51
ag468
ag890
ag207
ag832
ag898
ag837
ag751
ag281
ag379
ag644
ag22
ag288
ag738
ag367
aS'1'
ag349
ag402
aS'5'
ag146
ag291
ag484
ag290
ag551
ag302
ag545
ag509
ag66
ag820
ag841
ag225
ag345
ag746
ag713
ag192
ag701
ag138
ag792
ag868
ag216
ag33
ag573
ag305
ag373
ag634
ag105
ag474
ag830
ag480
ag394
ag375
ag214
ag213
ag529
ag381
ag34
ag584
ag328
ag261
ag889
ag891
ag140
ag107
ag627
ag783
ag269
ag161
ag570
ag151
ag69
ag368
ag628
ag748
ag585
ag714
ag23
ag110
ag155
ag487
ag398
ag371
ag506
ag741
ag152
ag690
ag433
ag460
ag408
ag697
ag534
ag510
ag440
ag816
ag123
ag798
ag386
ag273
ag611
ag485
ag286
ag292
ag62
ag221
ag232
ag91
ag877
ag541
ag43
ag218
ag145
ag734
ag899
ag660
ag127
ag520
ag525
ag167
ag258
ag823
ag659
ag864
ag809
ag243
ag540
ag399
ag786
ag447
ag362
ag38
ag648
ag96
ag583
ag691
ag614
ag728
ag797
ag428
ag437
ag298
ag392
ag150
ag711
ag538
ag63
ag561
ag356
ag391
ag812
ag852
ag423
ag643
ag881
ag882
ag125
ag449
ag247
ag610
ag481
ag67
ag299
ag143
ag332
ag370
ag604
ag596
ag681
ag450
ag190
ag462
ag725
ag695
ag422
ag885
ag401
ag279
ag289
ag19
ag365
ag903
ag196
ag315
ag804
aS'e'
ag272
ag770
ag875
ag846
ag416
ag669
aS'6'
aS'8'
ag555
ag479
ag171
ag203
ag407
ag692
ag438
ag412
ag635
ag32
ag514
ag630
ag707
ag64
ag435
ag254
ag858
ag724
ag496
ag892
ag348
ag217
ag215
ag358
ag794
ag44
ag89
ag781
ag696
ag324
ag667
ag685
ag271
ag149
ag595
ag618
ag549
aS'c'
ag489
ag181
ag117
ag256
ag417
ag158
ag202
ag418
ag716
ag559
ag20
ag467
ag411
ag95
ag78
ag564
ag657
ag791
ag321
ag251
ag572
ag147
ag902
ag313
ag867
ag233
ag455
ag571
ag425
ag578
ag511
ag469
ag527
ag504
ag626
ag563
ag227
ag878
ag366
ag142
ag406
ag104
ag296
ag424
ag244
ag148
ag708
ag93
ag242
ag880
ag361
ag58
ag516
ag530
ag378
ag83
ag730
ag552
ag901
ag470
ag118
ag617
ag458
ag706
ag239
ag24
ag876
ag191
ag341
ag710
ag699
ag284
ag21
ag25
ag806
ag785
ag883
ag478
ag859
ag334
ag223
ag287
ag477
ag501
ag772
ag500
ag518
ag72
ag257
ag342
ag577
ag177
ag497
ag31
ag756
ag829
ag403
ag819
ag796
ag384
ag800
ag588
ag562
ag607
ag896
ag182
ag861
ag109
ag531
ag376
ag683
ag668
ag240
ag839
ag297
ag905
ag844
aS'0'
ag397
ag414
ag235
ag592
ag253
ag760
ag347
ag464
ag114
ag54
ag590
ag814
ag53
ag337
ag136
ag461
ag441
ag168
ag312
ag97
ag129
ag457
ag539
ag472
ag82
ag73
ag789
ag486
ag209
ag311
ag380
ag443
ag429
ag499
ag396
ag36
ag188
ag636
ag249
ag246
ag757
ag850
ag28
ag346
ag301
ag769
ag270
ag128
ag320
ag282
ag274
ag47
ag754
ag537
ag836
ag360
ag139
ag90
ag854
ag132
ag805
ag267
ag352
ag632
ag52
ag721
ag130
ag874
ag840
ag194
ag260
ag49
ag336
ag439
ag454
ag57
ag698
ag762
ag813
ag888
ag870
ag410
ag206
ag236
ag278
ag768
ag771
ag154
ag761
ag894
ag59
ag473
ag826
ag503
ag157
ag574
ag845
ag99
ag224
ag245
ag873
ag807
ag211
ag280
ag778
ag111
ag103
ag782
ag237
ag818
ag609
ag200
ag483
ag436
ag259
ag131
ag884
ag335
ag498
ag220
ag686
ag494
ag427
ag842
ag679
ag116
ag811
ag587
ag507
ag101
ag661
ag680
ag508
ag624
ag293
ag848
ag550
ag774
ag726
ag106
ag385
ag310
ag705
ag172
ag413
ag372
ag787
ag120
ag395
ag586
ag355
ag649
ag115
ag331
ag219
ag515
ag306
ag598
ag750
ag263
ag569
ag228
ag733
ag625
ag162
ag451
ag703
ag560
ag354
ag886
ag620
ag71
ag906
ag65
ag808
ag764
ag666
ag50
ag277
ag652
ag532
ag178
ag744
ag616
ag333
ag517
ag42
ag488
ag735
ag30
ag199
ag490
ag731
ag491
ag26
ag745
ag144
ag704
ag230
ag709
ag694
ag740
ag788
ag565
ag543
ag294
ag593
ag799
ag390
ag580
ag186
ag862
ag492
ag61
ag821
ag351
ag653
ag330
ag553
ag452
ag621
ag526
ag676
ag739
ag388
ag688
ag860
ag519
ag718
ag834
ag838
ag323
ag55
ag853
ag308
ag327
ag608
ag434
ag879
ag647
ag743
ag638
ag163
ag329
ag124
ag295
ag674
ag615
ag742
ag80
ag640
ag445
ag656
ag84
ag646
ag420
ag248
ag622
ag319
ag448
ag265
ag828
ag603
ag389
ag558
ag185
ag493
ag533
ag623
ag46
ag606
ag266
ag673
ag599
ag662
ag35
ag658
ag318
ag793
ag166
ag582
ag767
ag581
ag602
ag682
ag567
ag304
ag866
ag119
ag74
ag822
ag353
ag164
ag60
ag528
ag575
ag419
ag29
ag421
ag456
ag241
ag817
ag719
ag212
ag208
ag156
ag810
ag777
ag159
ag755
ag776
ag234
ag729
ag338
ag465
ag463
ag795
ag521
ag94
ag677
ag672
ag126
ag283
ag377
ag790
ag195
ag502
ag723
ag316
ag88
ag141
ag597
ag871
ag86
ag663
ag112
ag904
ag77
ag678
ag835
ag654
ag350
ag374
ag865
ag189
ag664
ag430
ag495
ag702
ag70
ag431
ag268
ag546
ag482
ag763
ag655
ag85
ag566
ag548
ag369
ag642
ag613
ag856
ag887
ag102
ag576
ag262
ag81
ag135
ag765
ag39
ag752
ag833
ag536
ag387
ag231
ag432
ag340
ag802
ag285
ag825
ag863
ag831
ag824
ag775
ag453
ag405
ag505
ag325
ag612
ag45
ag363
ag222
asbsS'max_document_length'
p911
I23
sS'_tokenizer'
p912
ctensorflow.contrib.learn.python.learn.preprocessing.text
tokenizer
p913
sS'min_frequency'
p914
I0
sb.